; Function Attrs: mustprogress nofree norecurse nosync nounwind willreturn memory(read, inaccessiblemem: none) uwtable
define hidden noundef i32 @_ZNK4cvc58internal6theory5arith6linear12TableauSizes12getRowLengthEj(ptr noundef nonnull readonly align 8 captures(none) dereferenceable(8) %0, i32 noundef %1) local_unnamed_addr #3 align 2 {
  %3 = load ptr, ptr %0, align 8, !tbaa !3
  %4 = getelementptr inbounds nuw i8, ptr %3, i64 400
  %5 = zext i32 %1 to i64
  %6 = load ptr, ptr %4, align 8, !tbaa !9
  %7 = getelementptr inbounds nuw i32, ptr %6, i64 %5
  %8 = load i32, ptr %7, align 4, !tbaa !12
  %9 = zext i32 %8 to i64
  %10 = load ptr, ptr %3, align 8, !tbaa !14
  %11 = getelementptr inbounds nuw %"class.cvc5::internal::theory::arith::linear::RowVector", ptr %10, i64 %9, i32 0, i32 1
  %12 = load i32, ptr %11, align 4, !tbaa !17
  ret i32 %12
}